target datalayout = "e-m:e-p270:32:32-p271:32:32-p272:64:64-i64:64-i128:128-f80:128-n8:16:32:64-S128"
target triple = "x86_64-pc-linux-gnu"

%"class.casadi::SparsityInternal" = type { %"class.casadi::SharedObjectInternal", %"class.std::vector", ptr }
%"class.casadi::SharedObjectInternal" = type { ptr, i64, ptr }
%"class.std::vector" = type { %"struct.std::_Vector_base" }
%"struct.std::_Vector_base" = type { %"struct.std::_Vector_base<long long, std::allocator<long long>>::_Vector_impl" }
%"struct.std::_Vector_base<long long, std::allocator<long long>>::_Vector_impl" = type { %"struct.std::_Vector_base<long long, std::allocator<long long>>::_Vector_impl_data" }
%"struct.std::_Vector_base<long long, std::allocator<long long>>::_Vector_impl_data" = type { ptr, ptr, ptr }
%"class.__gnu_cxx::__normal_iterator.15" = type { ptr }

; Function Attrs: mustprogress nounwind uwtable
define linkonce_odr hidden void @_ZN9__gnu_cxx17__normal_iteratorIPKxSt6vectorIxSaIxEEEC2ERKS2_(ptr noundef nonnull align 8 dereferenceable(8) %0, ptr noundef nonnull align 8 dereferenceable(8) %1) unnamed_addr #4 comdat align 2 {
  %3 = alloca ptr, align 8
  %4 = alloca ptr, align 8
  store ptr %0, ptr %3, align 8
  store ptr %1, ptr %4, align 8
  %5 = load ptr, ptr %3, align 8
  %6 = getelementptr inbounds %"class.__gnu_cxx::__normal_iterator.15", ptr %5, i32 0, i32 0
  %7 = load ptr, ptr %4, align 8
  %8 = load ptr, ptr %7, align 8
  store ptr %8, ptr %6, align 8
  ret void
}

; Function Attrs: mustprogress nounwind uwtable
define linkonce_odr hidden noundef nonnull align 8 dereferenceable(8) ptr @_ZNK9__gnu_cxx17__normal_iteratorIPKxSt6vectorIxSaIxEEEdeEv(ptr noundef nonnull align 8 dereferenceable(8) %0) #4 comdat align 2 {
  %2 = alloca ptr, align 8
  store ptr %0, ptr %2, align 8
  %3 = load ptr, ptr %2, align 8
  %4 = getelementptr inbounds %"class.__gnu_cxx::__normal_iterator.15", ptr %3, i32 0, i32 0
  %5 = load ptr, ptr %4, align 8
  ret ptr %5
}

; Function Attrs: mustprogress nounwind uwtable
define linkonce_odr hidden ptr @_ZNKSt6vectorIxSaIxEE5beginEv(ptr noundef nonnull align 8 dereferenceable(24) %0) #4 comdat align 2 {
  %2 = alloca %"class.__gnu_cxx::__normal_iterator.15", align 8
  %3 = alloca ptr, align 8
  store ptr %0, ptr %3, align 8
  %4 = load ptr, ptr %3, align 8
  %5 = getelementptr inbounds %"struct.std::_Vector_base", ptr %4, i32 0, i32 0
  %6 = getelementptr inbounds %"struct.std::_Vector_base<long long, std::allocator<long long>>::_Vector_impl_data", ptr %5, i32 0, i32 0
  call void @_ZN9__gnu_cxx17__normal_iteratorIPKxSt6vectorIxSaIxEEEC2ERKS2_(ptr noundef nonnull align 8 dereferenceable(8) %2, ptr noundef nonnull align 8 dereferenceable(8) %6) #3
  %7 = getelementptr inbounds %"class.__gnu_cxx::__normal_iterator.15", ptr %2, i32 0, i32 0
  %8 = load ptr, ptr %7, align 8
  ret ptr %8
}

; Function Attrs: mustprogress nounwind uwtable
define linkonce_odr hidden noundef nonnull align 8 dereferenceable(8) ptr @_ZNKSt6vectorIxSaIxEE5frontEv(ptr noundef nonnull align 8 dereferenceable(24) %0) #4 comdat align 2 {
  %2 = alloca ptr, align 8
  %3 = alloca %"class.__gnu_cxx::__normal_iterator.15", align 8
  store ptr %0, ptr %2, align 8
  %4 = load ptr, ptr %2, align 8
  %5 = call ptr @_ZNKSt6vectorIxSaIxEE5beginEv(ptr noundef nonnull align 8 dereferenceable(24) %4) #3
  %6 = getelementptr inbounds %"class.__gnu_cxx::__normal_iterator.15", ptr %3, i32 0, i32 0
  store ptr %5, ptr %6, align 8
  %7 = call noundef nonnull align 8 dereferenceable(8) ptr @_ZNK9__gnu_cxx17__normal_iteratorIPKxSt6vectorIxSaIxEEEdeEv(ptr noundef nonnull align 8 dereferenceable(8) %3) #3
  ret ptr %7
}

; Function Attrs: mustprogress nounwind uwtable
define linkonce_odr hidden noundef nonnull align 8 dereferenceable(8) ptr @_ZNKSt6vectorIxSaIxEEixEm(ptr noundef nonnull align 8 dereferenceable(24) %0, i64 noundef %1) #4 comdat align 2 {
  %3 = alloca ptr, align 8
  %4 = alloca i64, align 8
  store ptr %0, ptr %3, align 8
  store i64 %1, ptr %4, align 8
  %5 = load ptr, ptr %3, align 8
  %6 = getelementptr inbounds %"struct.std::_Vector_base", ptr %5, i32 0, i32 0
  %7 = getelementptr inbounds %"struct.std::_Vector_base<long long, std::allocator<long long>>::_Vector_impl_data", ptr %6, i32 0, i32 0
  %8 = load ptr, ptr %7, align 8
  %9 = load i64, ptr %4, align 8
  %10 = getelementptr inbounds i64, ptr %8, i64 %9
  ret ptr %10
}

; Function Attrs: mustprogress nounwind uwtable
define linkonce_odr hidden noundef ptr @_ZNK6casadi16SparsityInternal3rowEv(ptr noundef nonnull align 8 dereferenceable(56) %0) #4 comdat align 2 {
  %2 = alloca ptr, align 8
  store ptr %0, ptr %2, align 8
  %3 = load ptr, ptr %2, align 8
  %4 = call noundef ptr @_ZNK6casadi16SparsityInternal6colindEv(ptr noundef nonnull align 8 dereferenceable(56) %3)
  %5 = call noundef i64 @_ZNK6casadi16SparsityInternal5size2Ev(ptr noundef nonnull align 8 dereferenceable(56) %3)
  %6 = getelementptr inbounds i64, ptr %4, i64 %5
  %7 = getelementptr inbounds i64, ptr %6, i64 1
  ret ptr %7
}

; Function Attrs: mustprogress nounwind uwtable
define linkonce_odr hidden noundef ptr @_ZNK6casadi16SparsityInternal6colindEv(ptr noundef nonnull align 8 dereferenceable(56) %0) #4 comdat align 2 {
  %2 = alloca ptr, align 8
  store ptr %0, ptr %2, align 8
  %3 = load ptr, ptr %2, align 8
  %4 = getelementptr inbounds %"class.casadi::SparsityInternal", ptr %3, i32 0, i32 1
  %5 = call noundef nonnull align 8 dereferenceable(8) ptr @_ZNKSt6vectorIxSaIxEE5frontEv(ptr noundef nonnull align 8 dereferenceable(24) %4) #3
  %6 = getelementptr inbounds i64, ptr %5, i64 2
  ret ptr %6
}

; Function Attrs: mustprogress nounwind uwtable
define linkonce_odr hidden noundef i64 @_ZNK6casadi16SparsityInternal5size2Ev(ptr noundef nonnull align 8 dereferenceable(56) %0) #4 comdat align 2 {
  %2 = alloca ptr, align 8
  store ptr %0, ptr %2, align 8
  %3 = load ptr, ptr %2, align 8
  %4 = getelementptr inbounds %"class.casadi::SparsityInternal", ptr %3, i32 0, i32 1
  %5 = call noundef nonnull align 8 dereferenceable(8) ptr @_ZNKSt6vectorIxSaIxEEixEm(ptr noundef nonnull align 8 dereferenceable(24) %4, i64 noundef 1) #3
  %6 = load i64, ptr %5, align 8
  ret i64 %6
}

; Function Attrs: mustprogress nounwind uwtable
define linkonce_odr hidden noundef i64 @_ZNK6casadi16SparsityInternal5size1Ev(ptr noundef nonnull align 8 dereferenceable(56) %0) #4 comdat align 2 {
  %2 = alloca ptr, align 8
  store ptr %0, ptr %2, align 8
  %3 = load ptr, ptr %2, align 8
  %4 = getelementptr inbounds %"class.casadi::SparsityInternal", ptr %3, i32 0, i32 1
  %5 = call noundef nonnull align 8 dereferenceable(8) ptr @_ZNKSt6vectorIxSaIxEEixEm(ptr noundef nonnull align 8 dereferenceable(24) %4, i64 noundef 0) #3
  %6 = load i64, ptr %5, align 8
  ret i64 %6
}

; Function Attrs: mustprogress uwtable
define noundef zeroext i1 @_ZNK6casadi16SparsityInternal8has_diagEv(ptr noundef nonnull align 8 dereferenceable(56) %0) #5 align 2 {
  %2 = alloca i1, align 1
  %3 = alloca ptr, align 8
  %4 = alloca i64, align 8
  %5 = alloca i64, align 8
  %6 = alloca ptr, align 8
  %7 = alloca ptr, align 8
  %8 = alloca i64, align 8
  %9 = alloca i64, align 8
  store ptr %0, ptr %3, align 8
  %10 = load ptr, ptr %3, align 8
  %11 = call noundef i64 @_ZNK6casadi16SparsityInternal5size1Ev(ptr noundef nonnull align 8 dereferenceable(56) %10)
  store i64 %11, ptr %4, align 8
  %12 = call noundef i64 @_ZNK6casadi16SparsityInternal5size2Ev(ptr noundef nonnull align 8 dereferenceable(56) %10)
  store i64 %12, ptr %5, align 8
  %13 = call noundef ptr @_ZNK6casadi16SparsityInternal6colindEv(ptr noundef nonnull align 8 dereferenceable(56) %10)
  store ptr %13, ptr %6, align 8
  %14 = call noundef ptr @_ZNK6casadi16SparsityInternal3rowEv(ptr noundef nonnull align 8 dereferenceable(56) %10)
  store ptr %14, ptr %7, align 8
  store i64 0, ptr %8, align 8
  br label %15

15:                                               ; preds = %51, %1
  %16 = load i64, ptr %8, align 8
  %17 = load i64, ptr %5, align 8
  %18 = icmp slt i64 %16, %17
  br i1 %18, label %19, label %23

19:                                               ; preds = %15
  %20 = load i64, ptr %8, align 8
  %21 = load i64, ptr %4, align 8
  %22 = icmp slt i64 %20, %21
  br label %23

23:                                               ; preds = %19, %15
  %24 = phi i1 [ false, %15 ], [ %22, %19 ]
  br i1 %24, label %25, label %54

25:                                               ; preds = %23
  %26 = load ptr, ptr %6, align 8
  %27 = load i64, ptr %8, align 8
  %28 = getelementptr inbounds i64, ptr %26, i64 %27
  %29 = load i64, ptr %28, align 8
  store i64 %29, ptr %9, align 8
  br label %30

30:                                               ; preds = %47, %25
  %31 = load i64, ptr %9, align 8
  %32 = load ptr, ptr %6, align 8
  %33 = load i64, ptr %8, align 8
  %34 = add nsw i64 %33, 1
  %35 = getelementptr inbounds i64, ptr %32, i64 %34
  %36 = load i64, ptr %35, align 8
  %37 = icmp slt i64 %31, %36
  br i1 %37, label %38, label %50

38:                                               ; preds = %30
  %39 = load ptr, ptr %7, align 8
  %40 = load i64, ptr %9, align 8
  %41 = getelementptr inbounds i64, ptr %39, i64 %40
  %42 = load i64, ptr %41, align 8
  %43 = load i64, ptr %8, align 8
  %44 = icmp eq i64 %42, %43
  br i1 %44, label %45, label %46

45:                                               ; preds = %38
  store i1 true, ptr %2, align 1
  br label %55

46:                                               ; preds = %38
  br label %47

47:                                               ; preds = %46
  %48 = load i64, ptr %9, align 8
  %49 = add nsw i64 %48, 1
  store i64 %49, ptr %9, align 8
  br label %30, !llvm.loop !141

50:                                               ; preds = %30
  br label %51

51:                                               ; preds = %50
  %52 = load i64, ptr %8, align 8
  %53 = add nsw i64 %52, 1
  store i64 %53, ptr %8, align 8
  br label %15, !llvm.loop !142

54:                                               ; preds = %23
  store i1 false, ptr %2, align 1
  br label %55

55:                                               ; preds = %54, %45
  %56 = load i1, ptr %2, align 1
  ret i1 %56
}