; Function Attrs: mustprogress nofree norecurse nosync nounwind willreturn memory(read, inaccessiblemem: none) uwtable
define noundef zeroext i1 @_ZNK6casadi16SparsityInternal8has_diagEv(ptr nocapture noundef nonnull readonly align 8 dereferenceable(56) %0) local_unnamed_addr #11 align 2 {
  %2 = getelementptr inbounds i8, ptr %0, i64 24
  %3 = load ptr, ptr %2, align 8
  %4 = load i64, ptr %3, align 8
  %5 = getelementptr inbounds i8, ptr %3, i64 8
  %6 = load i64, ptr %5, align 8
  %7 = getelementptr inbounds i8, ptr %3, i64 16
  %8 = getelementptr inbounds i64, ptr %7, i64 %6
  %9 = getelementptr inbounds i8, ptr %8, i64 8
  %invariant.smin = tail call i64 @llvm.smin.i64(i64 %6, i64 %4)
  %10 = icmp sgt i64 %invariant.smin, 0
  br i1 %10, label %.lr.ph24.preheader, label %.loopexit17

.lr.ph24.preheader:                               ; preds = %1
  %.pre = load i64, ptr %7, align 8
  br label %.lr.ph24

.loopexit:                                        ; preds = %18, %.lr.ph24
  %11 = icmp slt i64 %14, %invariant.smin
  %exitcond28.not = icmp eq i64 %14, %invariant.smin
  br i1 %exitcond28.not, label %.loopexit17, label %.lr.ph24, !llvm.loop !186

.lr.ph24:                                         ; preds = %.lr.ph24.preheader, %.loopexit
  %12 = phi i64 [ %16, %.loopexit ], [ %.pre, %.lr.ph24.preheader ]
  %13 = phi i1 [ %11, %.loopexit ], [ true, %.lr.ph24.preheader ]
  %.01523 = phi i64 [ %14, %.loopexit ], [ 0, %.lr.ph24.preheader ]
  %14 = add nuw nsw i64 %.01523, 1
  %15 = getelementptr inbounds i64, ptr %7, i64 %14
  %16 = load i64, ptr %15, align 8
  %17 = icmp slt i64 %12, %16
  br i1 %17, label %.lr.ph, label %.loopexit

18:                                               ; preds = %.lr.ph
  %19 = add i64 %.022, 1
  %exitcond.not = icmp eq i64 %19, %16
  br i1 %exitcond.not, label %.loopexit, label %.lr.ph, !llvm.loop !187

.lr.ph:                                           ; preds = %.lr.ph24, %18
  %.022 = phi i64 [ %19, %18 ], [ %12, %.lr.ph24 ]
  %20 = getelementptr inbounds i64, ptr %9, i64 %.022
  %21 = load i64, ptr %20, align 8
  %22 = icmp eq i64 %21, %.01523
  br i1 %22, label %.loopexit17, label %18

.loopexit17:                                      ; preds = %.loopexit, %.lr.ph, %1
  %23 = phi i1 [ false, %1 ], [ %13, %.lr.ph ], [ %11, %.loopexit ]
  ret i1 %23
}